target datalayout = "e-m:e-p270:32:32-p271:32:32-p272:64:64-i64:64-i128:128-f80:128-n8:16:32:64-S128"
target triple = "x86_64-pc-linux-gnu"

%union.SourceSpan = type { i64 }
%struct.PlatformTarget = type { ptr, i32, ptr, ptr, i32, i32, i32, i32, i32, i32, i32, [7 x %struct.AlignData], [7 x %struct.AlignData], [7 x %struct.AlignData], i32, i16, %union.anon.90, i8, i8, i8, i8, i8, i8, i8, i8, i8, i8, %struct.AlignData, i32, i32, i32, i32, i32, i32, i32, i32, i32, i32, i32, i32, i32, i32, i32, i32, ptr }
%union.anon.90 = type { %struct.anon.92 }
%struct.anon.92 = type { %struct.X86Features, i32, i32 }
%struct.X86Features = type { [2 x i64], ptr }
%struct.AlignData = type { i32, i32 }
%struct.Signature_ = type <{ %struct.CalleeAttributes, i16, i8, i32, i32, [4 x i8], ptr }>
%struct.CalleeAttributes = type { i8 }
%struct.Decl_ = type { ptr, ptr, %union.SourceSpan, i64, %union.anon, i32, %union.anon.0, i64, ptr, ptr, ptr, %union.anon.1 }
%union.anon = type { ptr }
%union.anon.0 = type { i16 }
%union.anon.1 = type { %struct.FuncDecl }
%struct.FuncDecl = type { i32, [4 x i8], %struct.Signature_, i32, i32, %union.anon.8 }
%union.anon.8 = type { %struct.anon.9 }
%struct.anon.9 = type { i16, %union.anon.10 }
%union.anon.10 = type { ptr }
%struct.Expr_ = type { ptr, %union.SourceSpan, i16, %union.anon.29 }
%union.anon.29 = type { %struct.ExprAnySwitch }
%struct.ExprAnySwitch = type { i8, %union.anon.31 }
%union.anon.31 = type { %struct.anon.32 }
%struct.anon.32 = type { ptr, %union.SourceSpan, ptr }
%struct.ExprConst = type { i16, %union.anon.38 }
%union.anon.38 = type { %struct.Int }
%struct.Int = type { %struct.Int128_, i32 }
%struct.Int128_ = type { i64, i64 }
%struct.anon.39 = type { ptr, i32 }

@.str.101 = private unnamed_addr constant [6 x i8] c"cdecl\00", align 1
@.str.102 = private unnamed_addr constant [8 x i8] c"veccall\00", align 1
@platform_target = external global %struct.PlatformTarget, align 8
@.str.103 = private unnamed_addr constant [8 x i8] c"stdcall\00", align 1
@.str.104 = private unnamed_addr constant [77 x i8] c"Unknown call convention, only 'cdecl', 'stdcall' and 'veccall' are supported\00", align 1

; Function Attrs: nounwind uwtable
define internal zeroext i1 @update_call_abi_from_string(ptr noundef %0, ptr noundef %1) #0 {
  %3 = alloca ptr, align 8
  %4 = alloca i32, align 4
  %5 = alloca ptr, align 8
  %6 = alloca i32, align 4
  %7 = alloca ptr, align 8
  %8 = alloca i32, align 4
  %9 = alloca ptr, align 8
  %10 = alloca i32, align 4
  %11 = alloca i1, align 1
  %12 = alloca ptr, align 8
  %13 = alloca ptr, align 8
  %14 = alloca ptr, align 8
  store ptr %0, ptr %12, align 8
  store ptr %1, ptr %13, align 8
  %15 = load ptr, ptr %13, align 8
  %16 = getelementptr inbounds %struct.Expr_, ptr %15, i32 0, i32 3
  %17 = getelementptr inbounds %struct.ExprConst, ptr %16, i32 0, i32 1
  %18 = getelementptr inbounds %struct.anon.39, ptr %17, i32 0, i32 0
  %19 = load ptr, ptr %18, align 8
  store ptr %19, ptr %14, align 8
  %20 = load ptr, ptr %14, align 8
  %21 = call i32 @strcmp(ptr noundef %20, ptr noundef @.str.101) #9
  %22 = icmp eq i32 %21, 0
  br i1 %22, label %23, label %36

23:                                               ; preds = %2
  %24 = load ptr, ptr %12, align 8
  store ptr %24, ptr %3, align 8
  store i32 0, ptr %4, align 4
  %25 = load i32, ptr %4, align 4
  %26 = load ptr, ptr %3, align 8
  %27 = getelementptr inbounds %struct.Decl_, ptr %26, i32 0, i32 11
  %28 = getelementptr inbounds %struct.FuncDecl, ptr %27, i32 0, i32 2
  %29 = getelementptr inbounds %struct.Signature_, ptr %28, i32 0, i32 1
  %30 = trunc i32 %25 to i16
  %31 = load i16, ptr %29, align 1
  %32 = and i16 %30, 255
  %33 = shl i16 %32, 6
  %34 = and i16 %31, -16321
  %35 = or i16 %34, %33
  store i16 %35, ptr %29, align 1
  store i1 true, ptr %11, align 1
  br label %99

36:                                               ; preds = %2
  %37 = load ptr, ptr %14, align 8
  %38 = call i32 @strcmp(ptr noundef %37, ptr noundef @.str.102) #9
  %39 = icmp eq i32 %38, 0
  br i1 %39, label %40, label %70

40:                                               ; preds = %36
  %41 = load i32, ptr getelementptr inbounds (%struct.PlatformTarget, ptr @platform_target, i32 0, i32 4), align 8
  switch i32 %41, label %69 [
    i32 32, label %42
    i32 1, label %55
    i32 2, label %55
    i32 3, label %55
    i32 5, label %55
    i32 4, label %55
    i32 31, label %68
  ]

42:                                               ; preds = %40
  %43 = load ptr, ptr %12, align 8
  store ptr %43, ptr %5, align 8
  store i32 1, ptr %6, align 4
  %44 = load i32, ptr %6, align 4
  %45 = load ptr, ptr %5, align 8
  %46 = getelementptr inbounds %struct.Decl_, ptr %45, i32 0, i32 11
  %47 = getelementptr inbounds %struct.FuncDecl, ptr %46, i32 0, i32 2
  %48 = getelementptr inbounds %struct.Signature_, ptr %47, i32 0, i32 1
  %49 = trunc i32 %44 to i16
  %50 = load i16, ptr %48, align 1
  %51 = and i16 %49, 255
  %52 = shl i16 %51, 6
  %53 = and i16 %50, -16321
  %54 = or i16 %53, %52
  store i16 %54, ptr %48, align 1
  store i1 true, ptr %11, align 1
  br label %99

55:                                               ; preds = %40, %40, %40, %40, %40
  %56 = load ptr, ptr %12, align 8
  store ptr %56, ptr %7, align 8
  store i32 3, ptr %8, align 4
  %57 = load i32, ptr %8, align 4
  %58 = load ptr, ptr %7, align 8
  %59 = getelementptr inbounds %struct.Decl_, ptr %58, i32 0, i32 11
  %60 = getelementptr inbounds %struct.FuncDecl, ptr %59, i32 0, i32 2
  %61 = getelementptr inbounds %struct.Signature_, ptr %60, i32 0, i32 1
  %62 = trunc i32 %57 to i16
  %63 = load i16, ptr %61, align 1
  %64 = and i16 %62, 255
  %65 = shl i16 %64, 6
  %66 = and i16 %63, -16321
  %67 = or i16 %66, %65
  store i16 %67, ptr %61, align 1
  store i1 true, ptr %11, align 1
  br label %99

68:                                               ; preds = %40
  br label %69

69:                                               ; preds = %68, %40
  store i1 true, ptr %11, align 1
  br label %99

70:                                               ; preds = %36
  %71 = load ptr, ptr %14, align 8
  %72 = call i32 @strcmp(ptr noundef %71, ptr noundef @.str.103) #9
  %73 = icmp eq i32 %72, 0
  br i1 %73, label %74, label %94

74:                                               ; preds = %70
  %75 = load i32, ptr getelementptr inbounds (%struct.PlatformTarget, ptr @platform_target, i32 0, i32 4), align 8
  %76 = icmp eq i32 %75, 1
  br i1 %76, label %80, label %77

77:                                               ; preds = %74
  %78 = load i32, ptr getelementptr inbounds (%struct.PlatformTarget, ptr @platform_target, i32 0, i32 4), align 8
  %79 = icmp eq i32 %78, 2
  br i1 %79, label %80, label %93

80:                                               ; preds = %77, %74
  %81 = load ptr, ptr %12, align 8
  store ptr %81, ptr %9, align 8
  store i32 2, ptr %10, align 4
  %82 = load i32, ptr %10, align 4
  %83 = load ptr, ptr %9, align 8
  %84 = getelementptr inbounds %struct.Decl_, ptr %83, i32 0, i32 11
  %85 = getelementptr inbounds %struct.FuncDecl, ptr %84, i32 0, i32 2
  %86 = getelementptr inbounds %struct.Signature_, ptr %85, i32 0, i32 1
  %87 = trunc i32 %82 to i16
  %88 = load i16, ptr %86, align 1
  %89 = and i16 %87, 255
  %90 = shl i16 %89, 6
  %91 = and i16 %88, -16321
  %92 = or i16 %91, %90
  store i16 %92, ptr %86, align 1
  store i1 true, ptr %11, align 1
  br label %99

93:                                               ; preds = %77
  store i1 true, ptr %11, align 1
  br label %99

94:                                               ; preds = %70
  %95 = load ptr, ptr %13, align 8
  %96 = getelementptr inbounds %struct.Expr_, ptr %95, i32 0, i32 1
  %97 = getelementptr inbounds %union.SourceSpan, ptr %96, i32 0, i32 0
  %98 = load i64, ptr %97, align 8
  call void (i64, ptr, ...) @sema_error_at(i64 %98, ptr noundef @.str.104)
  store i1 false, ptr %11, align 1
  br label %99

99:                                               ; preds = %94, %93, %80, %69, %55, %42, %23
  %100 = load i1, ptr %11, align 1
  ret i1 %100
}